target datalayout = "e-m:e-p270:32:32-p271:32:32-p272:64:64-i64:64-i128:128-f80:128-n8:16:32:64-S128"
target triple = "x86_64-pc-linux-gnu"

%struct.SDL_HIDAPI_DeviceDriver = type { ptr, i8, ptr, ptr, ptr, ptr, ptr, ptr, ptr, ptr, ptr, ptr, ptr, ptr, ptr, ptr, ptr, ptr, ptr }
%struct.SDL_AtomicInt = type { i32 }
%struct.SDL_HIDAPI_Device = type { ptr, ptr, ptr, ptr, i16, i16, i16, ptr, %struct.SDL_GUID, i32, i32, i32, i32, i16, i16, i8, i32, i32, i32, ptr, ptr, ptr, ptr, %struct.SDL_AtomicInt, i32, ptr, i8, i8, i8, ptr, i32, ptr, ptr }
%struct.SDL_GUID = type { [16 x i8] }

@SDL_HIDAPI_devices = internal global ptr null, align 8
@SDL_HIDAPI_updating_devices = internal global %struct.SDL_AtomicInt zeroinitializer, align 4

; Function Attrs: nounwind uwtable
define internal void @HIDAPI_FinishUpdatingDevices() #0 {
  %1 = call i32 @SDL_SetAtomicInt_REAL(ptr noundef @SDL_HIDAPI_updating_devices, i32 noundef 0)
  ret void
}

; Function Attrs: nounwind uwtable
define internal zeroext i1 @HIDAPI_StartUpdatingDevices() #0 {
  %1 = call zeroext i1 @SDL_CompareAndSwapAtomicInt_REAL(ptr noundef @SDL_HIDAPI_updating_devices, i32 noundef 0, i32 noundef 1)
  ret i1 %1
}

; Function Attrs: nounwind uwtable
define hidden void @HIDAPI_UpdateDevices() #0 {
  %1 = alloca ptr, align 8
  call void @llvm.lifetime.start.p0(i64 8, ptr %1) #7
  call void @SDL_AssertJoysticksLocked()
  %2 = call zeroext i1 @HIDAPI_StartUpdatingDevices()
  br i1 %2, label %3, label %46

3:                                                ; preds = %0
  %4 = load ptr, ptr @SDL_HIDAPI_devices, align 8
  store ptr %4, ptr %1, align 8
  br label %5

5:                                                ; preds = %41, %3
  %6 = load ptr, ptr %1, align 8
  %7 = icmp ne ptr %6, null
  br i1 %7, label %8, label %45

8:                                                ; preds = %5
  %9 = load ptr, ptr %1, align 8
  %10 = getelementptr inbounds nuw %struct.SDL_HIDAPI_Device, ptr %9, i32 0, i32 29
  %11 = load ptr, ptr %10, align 8
  %12 = icmp ne ptr %11, null
  br i1 %12, label %13, label %14

13:                                               ; preds = %8
  br label %41

14:                                               ; preds = %8
  %15 = load ptr, ptr %1, align 8
  %16 = getelementptr inbounds nuw %struct.SDL_HIDAPI_Device, ptr %15, i32 0, i32 19
  %17 = load ptr, ptr %16, align 8
  %18 = icmp ne ptr %17, null
  br i1 %18, label %19, label %40

19:                                               ; preds = %14
  %20 = load ptr, ptr %1, align 8
  %21 = getelementptr inbounds nuw %struct.SDL_HIDAPI_Device, ptr %20, i32 0, i32 21
  %22 = load ptr, ptr %21, align 8
  %23 = call zeroext i1 @SDL_TryLockMutex_REAL(ptr noundef %22)
  br i1 %23, label %24, label %39

24:                                               ; preds = %19
  %25 = load ptr, ptr %1, align 8
  %26 = getelementptr inbounds nuw %struct.SDL_HIDAPI_Device, ptr %25, i32 0, i32 27
  store i8 1, ptr %26, align 1
  %27 = load ptr, ptr %1, align 8
  %28 = getelementptr inbounds nuw %struct.SDL_HIDAPI_Device, ptr %27, i32 0, i32 19
  %29 = load ptr, ptr %28, align 8
  %30 = getelementptr inbounds nuw %struct.SDL_HIDAPI_DeviceDriver, ptr %29, i32 0, i32 9
  %31 = load ptr, ptr %30, align 8
  %32 = load ptr, ptr %1, align 8
  %33 = call zeroext i1 %31(ptr noundef %32)
  %34 = load ptr, ptr %1, align 8
  %35 = getelementptr inbounds nuw %struct.SDL_HIDAPI_Device, ptr %34, i32 0, i32 27
  store i8 0, ptr %35, align 1
  %36 = load ptr, ptr %1, align 8
  %37 = getelementptr inbounds nuw %struct.SDL_HIDAPI_Device, ptr %36, i32 0, i32 21
  %38 = load ptr, ptr %37, align 8
  call void @SDL_UnlockMutex_REAL(ptr noundef %38)
  br label %39

39:                                               ; preds = %24, %19
  br label %40

40:                                               ; preds = %39, %14
  br label %41

41:                                               ; preds = %40, %13
  %42 = load ptr, ptr %1, align 8
  %43 = getelementptr inbounds nuw %struct.SDL_HIDAPI_Device, ptr %42, i32 0, i32 32
  %44 = load ptr, ptr %43, align 8
  store ptr %44, ptr %1, align 8
  br label %5, !llvm.loop !32

45:                                               ; preds = %5
  call void @HIDAPI_FinishUpdatingDevices()
  br label %46

46:                                               ; preds = %45, %0
  call void @llvm.lifetime.end.p0(i64 8, ptr %1) #7
  ret void
}