; Function Attrs: nounwind uwtable
define hidden void @HIDAPI_UpdateDevices() local_unnamed_addr #0 {
  tail call void @SDL_AssertJoysticksLocked() #9
  %1 = tail call zeroext i1 @SDL_CompareAndSwapAtomicInt_REAL(ptr noundef nonnull @SDL_HIDAPI_updating_devices, i32 noundef 0, i32 noundef 1) #9
  br i1 %1, label %.preheader, label %21

.preheader:                                       ; preds = %0
  %.012 = load ptr, ptr @SDL_HIDAPI_devices, align 8
  %.not13 = icmp eq ptr %.012, null
  br i1 %.not13, label %._crit_edge, label %.lr.ph

.lr.ph:                                           ; preds = %.preheader, %18
  %.014 = phi ptr [ %.0, %18 ], [ %.012, %.preheader ]
  %2 = getelementptr inbounds nuw i8, ptr %.014, i64 160
  %3 = load ptr, ptr %2, align 8
  %.not10 = icmp eq ptr %3, null
  br i1 %.not10, label %4, label %18

4:                                                ; preds = %.lr.ph
  %5 = getelementptr inbounds nuw i8, ptr %.014, i64 104
  %6 = load ptr, ptr %5, align 8
  %.not11 = icmp eq ptr %6, null
  br i1 %.not11, label %18, label %7

7:                                                ; preds = %4
  %8 = getelementptr inbounds nuw i8, ptr %.014, i64 120
  %9 = load ptr, ptr %8, align 8
  %10 = tail call zeroext i1 @SDL_TryLockMutex_REAL(ptr noundef %9) #9
  br i1 %10, label %11, label %18

11:                                               ; preds = %7
  %12 = getelementptr inbounds nuw i8, ptr %.014, i64 153
  store i8 1, ptr %12, align 1
  %13 = load ptr, ptr %5, align 8
  %14 = getelementptr inbounds nuw i8, ptr %13, i64 72
  %15 = load ptr, ptr %14, align 8
  %16 = tail call zeroext i1 %15(ptr noundef nonnull %.014) #9
  store i8 0, ptr %12, align 1
  %17 = load ptr, ptr %8, align 8
  tail call void @SDL_UnlockMutex_REAL(ptr noundef %17) #9
  br label %18

18:                                               ; preds = %4, %11, %7, %.lr.ph
  %19 = getelementptr inbounds nuw i8, ptr %.014, i64 184
  %.0 = load ptr, ptr %19, align 8
  %.not = icmp eq ptr %.0, null
  br i1 %.not, label %._crit_edge, label %.lr.ph, !llvm.loop !36

._crit_edge:                                      ; preds = %18, %.preheader
  %20 = tail call i32 @SDL_SetAtomicInt_REAL(ptr noundef nonnull @SDL_HIDAPI_updating_devices, i32 noundef 0) #9
  br label %21

21:                                               ; preds = %._crit_edge, %0
  ret void
}